; Function Attrs: mustprogress nounwind uwtable
define hidden void @_ZN7ZTracer17send_stat_samplerERK12ZStatSamplerm(ptr noundef nonnull align 8 dereferenceable(40) %0, i64 noundef %1) local_unnamed_addr #3 align 2 {
  %3 = alloca %class.EventZStatisticsSampler, align 8
  %4 = getelementptr inbounds i8, ptr %3, i64 17
  %5 = getelementptr inbounds i8, ptr %3, i64 18
  %6 = getelementptr inbounds i8, ptr %3, i64 8
  call void @llvm.memset.p0.i64(ptr noundef nonnull align 8 dereferenceable(11) %6, i8 0, i64 11, i1 false)
  %7 = load i8, ptr getelementptr inbounds (i8, ptr @_ZN15JfrEventSetting19_jvm_event_settingsE, i64 3641), align 1
  %8 = icmp eq i8 %7, 0
  br i1 %8, label %_ZN8JfrEventI23EventZStatisticsSamplerE13should_commitEv.exit.thread, label %_ZN23EventZStatisticsSamplerC2E14EventStartTime.exit

_ZN23EventZStatisticsSamplerC2E14EventStartTime.exit: ; preds = %2
  %9 = tail call noundef i64 @_ZN33FastUnorderedElapsedCounterSource3nowEv() #11
  store i64 %9, ptr %3, align 8
  %.pr = load i8, ptr getelementptr inbounds (i8, ptr @_ZN15JfrEventSetting19_jvm_event_settingsE, i64 3641), align 1
  %.not.i = icmp eq i8 %.pr, 0
  br i1 %.not.i, label %_ZN8JfrEventI23EventZStatisticsSamplerE13should_commitEv.exit.thread, label %10

10:                                               ; preds = %_ZN23EventZStatisticsSamplerC2E14EventStartTime.exit
  %11 = icmp eq i64 %9, 0
  br i1 %11, label %12, label %14

12:                                               ; preds = %10
  %13 = tail call noundef i64 @_ZN33FastUnorderedElapsedCounterSource3nowEv() #11
  store i64 %13, ptr %3, align 8
  br label %_ZN8JfrEventI23EventZStatisticsSamplerE13should_commitEv.exit

14:                                               ; preds = %10
  %15 = getelementptr inbounds i8, ptr %3, i64 8
  %16 = tail call noundef i64 @_ZN33FastUnorderedElapsedCounterSource3nowEv() #11
  store i64 %16, ptr %15, align 8
  br label %_ZN8JfrEventI23EventZStatisticsSamplerE13should_commitEv.exit

_ZN8JfrEventI23EventZStatisticsSamplerE13should_commitEv.exit: ; preds = %12, %14
  %17 = phi i64 [ %9, %14 ], [ %13, %12 ]
  %18 = phi i64 [ %16, %14 ], [ 0, %12 ]
  %19 = sub nsw i64 %18, %17
  %20 = load i64, ptr getelementptr inbounds (i8, ptr @_ZN15JfrEventSetting19_jvm_event_settingsE, i64 3624), align 8
  %21 = icmp sge i64 %19, %20
  %22 = zext i1 %21 to i8
  store i8 %22, ptr %4, align 1
  store i8 1, ptr %5, align 2
  br i1 %21, label %_ZN8JfrEventI23EventZStatisticsSamplerE13should_commitEv.exit.thread3, label %_ZN8JfrEventI23EventZStatisticsSamplerE13should_commitEv.exit.thread

_ZN8JfrEventI23EventZStatisticsSamplerE13should_commitEv.exit.thread3: ; preds = %_ZN8JfrEventI23EventZStatisticsSamplerE13should_commitEv.exit
  %23 = tail call noundef i32 @_ZNK10ZStatValue2idEv(ptr noundef nonnull align 8 dereferenceable(24) %0) #11
  %24 = zext i32 %23 to i64
  %25 = getelementptr inbounds i8, ptr %3, i64 24
  store i64 %24, ptr %25, align 8
  %26 = getelementptr inbounds i8, ptr %3, i64 32
  store i64 %1, ptr %26, align 8
  call void @_ZN8JfrEventI23EventZStatisticsSamplerE6commitEv(ptr noundef nonnull align 8 dereferenceable(19) %3)
  br label %_ZN8JfrEventI23EventZStatisticsSamplerE13should_commitEv.exit.thread

_ZN8JfrEventI23EventZStatisticsSamplerE13should_commitEv.exit.thread: ; preds = %2, %_ZN23EventZStatisticsSamplerC2E14EventStartTime.exit, %_ZN8JfrEventI23EventZStatisticsSamplerE13should_commitEv.exit.thread3, %_ZN8JfrEventI23EventZStatisticsSamplerE13should_commitEv.exit
  ret void
}